; Function Attrs: nofree norecurse nosync nounwind memory(argmem: readwrite) uwtable
define internal void @blend_softdifference_8bit(ptr noundef readonly captures(none) %0, i64 noundef %1, ptr noundef readonly captures(none) %2, i64 noundef %3, ptr noundef writeonly captures(none) %4, i64 noundef %5, i64 noundef %6, i64 noundef %7, ptr noundef readonly captures(none) %8, ptr readnone captures(none) %9) #6 {
  %11 = getelementptr inbounds nuw i8, ptr %8, i64 8
  %12 = load double, ptr %11, align 8, !tbaa !70
  %13 = fptrunc nsz double %12 to float
  %14 = icmp sgt i64 %7, 0
  %15 = icmp sgt i64 %6, 0
  %or.cond = and i1 %14, %15
  br i1 %or.cond, label %.preheader.us, label %._crit_edge60

.preheader.us:                                    ; preds = %10, %._crit_edge.us
  %indvars.iv64 = phi i64 [ %indvars.iv.next65, %._crit_edge.us ], [ 0, %10 ]
  %.04658.us = phi ptr [ %46, %._crit_edge.us ], [ %4, %10 ]
  %.04757.us = phi ptr [ %48, %._crit_edge.us ], [ %2, %10 ]
  %.04856.us = phi ptr [ %47, %._crit_edge.us ], [ %0, %10 ]
  br label %16

16:                                               ; preds = %.preheader.us, %.thread.us
  %indvars.iv = phi i64 [ 0, %.preheader.us ], [ %indvars.iv.next, %.thread.us ]
  %17 = getelementptr inbounds nuw i8, ptr %.04856.us, i64 %indvars.iv
  %18 = load i8, ptr %17, align 1, !tbaa !89
  %19 = zext i8 %18 to i32
  %20 = uitofp i8 %18 to float
  %21 = getelementptr inbounds nuw i8, ptr %.04757.us, i64 %indvars.iv
  %22 = load i8, ptr %21, align 1, !tbaa !89
  %23 = zext i8 %22 to i32
  %24 = icmp ugt i8 %18, %22
  br i1 %24, label %31, label %25

25:                                               ; preds = %16
  %26 = icmp eq i8 %22, 0
  br i1 %26, label %.thread.us, label %27

27:                                               ; preds = %25
  %28 = sub nsw i32 %23, %19
  %29 = mul nsw i32 %28, 255
  %30 = sdiv i32 %29, %23
  br label %36

31:                                               ; preds = %16
  %32 = sub nsw i32 %19, %23
  %33 = mul nsw i32 %32, 255
  %34 = xor i32 %23, 255
  %35 = sdiv i32 %33, %34
  br label %36

36:                                               ; preds = %31, %27
  %37 = phi i32 [ %35, %31 ], [ %30, %27 ]
  %.fr.us = freeze i32 %37
  %.not.i.us = icmp ult i32 %.fr.us, 256
  %isnotneg.i.us = icmp sgt i32 %.fr.us, -1
  %38 = sext i1 %isnotneg.i.us to i32
  %spec.select.us = select i1 %.not.i.us, i32 %.fr.us, i32 %38
  %39 = and i32 %spec.select.us, 255
  br label %.thread.us

.thread.us:                                       ; preds = %36, %25
  %40 = phi i32 [ 0, %25 ], [ %39, %36 ]
  %41 = sub nsw i32 %40, %19
  %42 = sitofp i32 %41 to float
  %43 = tail call nsz float @llvm.fmuladd.f32(float %42, float %13, float %20)
  %44 = fptoui float %43 to i8
  %45 = getelementptr inbounds nuw i8, ptr %.04658.us, i64 %indvars.iv
  store i8 %44, ptr %45, align 1, !tbaa !89
  %indvars.iv.next = add nuw nsw i64 %indvars.iv, 1
  %exitcond.not = icmp eq i64 %indvars.iv.next, %6
  br i1 %exitcond.not, label %._crit_edge.us, label %16, !llvm.loop !158

._crit_edge.us:                                   ; preds = %.thread.us
  %46 = getelementptr inbounds i8, ptr %.04658.us, i64 %5
  %47 = getelementptr inbounds i8, ptr %.04856.us, i64 %1
  %48 = getelementptr inbounds i8, ptr %.04757.us, i64 %3
  %indvars.iv.next65 = add nuw nsw i64 %indvars.iv64, 1
  %exitcond67.not = icmp eq i64 %indvars.iv.next65, %7
  br i1 %exitcond67.not, label %._crit_edge60, label %.preheader.us, !llvm.loop !159

._crit_edge60:                                    ; preds = %._crit_edge.us, %10
  ret void
}